; Function Attrs: mustprogress nounwind uwtable
define hidden void @_ZN12CompileQueue5printEP12outputStream(ptr nocapture noundef nonnull readonly align 8 dereferenceable(48) %0, ptr noundef nonnull %1) local_unnamed_addr #0 align 2 {
  %3 = load ptr, ptr %0, align 8
  tail call void (ptr, ptr, ...) @_ZN12outputStream8print_crEPKcz(ptr noundef nonnull align 8 dereferenceable(56) %1, ptr noundef nonnull @.str.14, ptr noundef %3) #20
  %4 = getelementptr inbounds i8, ptr %0, i64 8
  %5 = load ptr, ptr %4, align 8
  %6 = icmp eq ptr %5, null
  br i1 %6, label %7, label %.preheader

7:                                                ; preds = %2
  tail call void (ptr, ptr, ...) @_ZN12outputStream8print_crEPKcz(ptr noundef nonnull align 8 dereferenceable(56) %1, ptr noundef nonnull @.str.15) #20
  br label %.loopexit

.preheader:                                       ; preds = %2, %.preheader
  %.010 = phi ptr [ %9, %.preheader ], [ %5, %2 ]
  tail call void @_ZN11CompileTask5printEP12outputStreamPKcbb(ptr noundef nonnull align 8 dereferenceable(176) %.010, ptr noundef nonnull %1, ptr noundef null, i1 noundef zeroext true, i1 noundef zeroext true) #20
  %8 = getelementptr inbounds i8, ptr %.010, i64 88
  %9 = load ptr, ptr %8, align 8
  %.not = icmp eq ptr %9, null
  br i1 %.not, label %.loopexit, label %.preheader, !llvm.loop !9

.loopexit:                                        ; preds = %.preheader, %7
  tail call void @_ZN12outputStream2crEv(ptr noundef nonnull align 8 dereferenceable(56) %1) #20
  ret void
}